; Function Attrs: mustprogress uwtable
define hidden noundef zeroext i1 @_ZN3sls7bv_eval17try_repair_int2bvERKNS_5bvectEP4expr(ptr noundef nonnull readonly align 8 captures(none) dereferenceable(865) %0, ptr noundef nonnull align 8 dereferenceable(20) %1, ptr noundef %2) local_unnamed_addr #3 align 2 personality ptr @__gxx_personality_v0 {
  %4 = alloca %class.rational, align 8
  %5 = alloca %class.arith_util, align 8
  %6 = alloca %class.obj_ref, align 8
  call void @llvm.lifetime.start.p0(i64 32, ptr nonnull %4) #26
  %7 = getelementptr inbounds nuw i8, ptr %1, i64 12
  %8 = load i32, ptr %7, align 4, !tbaa !234
  call void @_ZNK3sls5bvect9get_valueEj(ptr dead_on_unwind nonnull writable sret(%class.rational) align 8 %4, ptr noundef nonnull align 8 dereferenceable(20) %1, i32 noundef %8)
  call void @llvm.lifetime.start.p0(i64 16, ptr nonnull %5) #26
  %9 = load ptr, ptr %0, align 8, !tbaa !48
  invoke void @_ZN10arith_utilC1ER11ast_manager(ptr noundef nonnull align 8 dereferenceable(16) %5, ptr noundef nonnull align 8 dereferenceable(976) %9)
          to label %10 unwind label %39

10:                                               ; preds = %3
  call void @llvm.lifetime.start.p0(i64 16, ptr nonnull %6) #26
  %11 = getelementptr inbounds nuw i8, ptr %5, i64 8
  %12 = load ptr, ptr %11, align 8, !tbaa !242
  %.not.i.i.i = icmp eq ptr %12, null
  br i1 %.not.i.i.i, label %13, label %_ZNK10arith_util10mk_numeralERK8rationalb.exit.i

13:                                               ; preds = %10
  invoke void @_ZN10arith_util11init_pluginEv(ptr noundef nonnull align 8 dereferenceable(16) %5)
          to label %.noexc unwind label %41

.noexc:                                           ; preds = %13
  %.pre.i.i.i = load ptr, ptr %11, align 8, !tbaa !242
  br label %_ZNK10arith_util10mk_numeralERK8rationalb.exit.i

_ZNK10arith_util10mk_numeralERK8rationalb.exit.i: ; preds = %.noexc, %10
  %14 = phi ptr [ %.pre.i.i.i, %.noexc ], [ %12, %10 ]
  %15 = invoke noundef ptr @_ZN17arith_decl_plugin10mk_numeralERK8rationalb(ptr noundef nonnull align 8 dereferenceable(441) %14, ptr noundef nonnull align 8 dereferenceable(32) %4, i1 noundef zeroext true)
          to label %_ZN10arith_util6mk_intERK8rational.exit unwind label %41

_ZN10arith_util6mk_intERK8rational.exit:          ; preds = %_ZNK10arith_util10mk_numeralERK8rationalb.exit.i
  %16 = load ptr, ptr %0, align 8, !tbaa !48
  store ptr %15, ptr %6, align 8, !tbaa !166
  %17 = getelementptr inbounds nuw i8, ptr %6, i64 8
  store ptr %16, ptr %17, align 8, !tbaa !44
  %.not.i.i = icmp eq ptr %15, null
  br i1 %.not.i.i, label %_ZN7obj_refI4expr11ast_managerEC2EPS0_RS1_.exit, label %_ZN11ast_manager7inc_refEP3ast.exit.i.i

_ZN11ast_manager7inc_refEP3ast.exit.i.i:          ; preds = %_ZN10arith_util6mk_intERK8rational.exit
  %18 = getelementptr inbounds nuw i8, ptr %15, i64 8
  %19 = load i32, ptr %18, align 4, !tbaa !169
  %20 = add i32 %19, 1
  store i32 %20, ptr %18, align 4, !tbaa !169
  br label %_ZN7obj_refI4expr11ast_managerEC2EPS0_RS1_.exit

_ZN7obj_refI4expr11ast_managerEC2EPS0_RS1_.exit:  ; preds = %_ZN11ast_manager7inc_refEP3ast.exit.i.i, %_ZN10arith_util6mk_intERK8rational.exit
  %21 = getelementptr inbounds nuw i8, ptr %0, i64 8
  %22 = load ptr, ptr %21, align 8, !tbaa !163
  %23 = invoke noundef zeroext i1 @_ZN3sls7context9set_valueEP4exprS2_(ptr noundef nonnull align 8 dereferenceable(321) %22, ptr noundef %2, ptr noundef %15)
          to label %24 unwind label %43

24:                                               ; preds = %_ZN7obj_refI4expr11ast_managerEC2EPS0_RS1_.exit
  br i1 %.not.i.i, label %_ZN7obj_refI4expr11ast_managerED2Ev.exit, label %25

25:                                               ; preds = %24
  %26 = getelementptr inbounds nuw i8, ptr %15, i64 8
  %27 = load i32, ptr %26, align 4, !tbaa !169
  %28 = add i32 %27, -1
  store i32 %28, ptr %26, align 4, !tbaa !169
  %29 = icmp eq i32 %28, 0
  br i1 %29, label %30, label %_ZN7obj_refI4expr11ast_managerED2Ev.exit

30:                                               ; preds = %25
  invoke void @_ZN11ast_manager11delete_nodeEP3ast(ptr noundef nonnull align 8 dereferenceable(976) %16, ptr noundef nonnull %15)
          to label %_ZN7obj_refI4expr11ast_managerED2Ev.exit unwind label %31

31:                                               ; preds = %30
  %32 = landingpad { ptr, i32 }
          catch ptr null
  %33 = extractvalue { ptr, i32 } %32, 0
  call void @__clang_call_terminate(ptr %33) #27
  unreachable

_ZN7obj_refI4expr11ast_managerED2Ev.exit:         ; preds = %24, %25, %30
  call void @llvm.lifetime.end.p0(i64 16, ptr nonnull %6) #26
  call void @llvm.lifetime.end.p0(i64 16, ptr nonnull %5) #26
  %34 = load ptr, ptr @_ZN8rational13g_mpq_managerE, align 8, !tbaa !148
  invoke void @_ZN11mpz_managerILb1EE3delEPS0_R3mpz(ptr noundef %34, ptr noundef nonnull align 8 dereferenceable(32) %4)
          to label %.noexc.i unwind label %36

.noexc.i:                                         ; preds = %_ZN7obj_refI4expr11ast_managerED2Ev.exit
  %35 = getelementptr inbounds nuw i8, ptr %4, i64 16
  invoke void @_ZN11mpz_managerILb1EE3delEPS0_R3mpz(ptr noundef %34, ptr noundef nonnull align 8 dereferenceable(16) %35)
          to label %_ZN8rationalD2Ev.exit unwind label %36

36:                                               ; preds = %.noexc.i, %_ZN7obj_refI4expr11ast_managerED2Ev.exit
  %37 = landingpad { ptr, i32 }
          catch ptr null
  %38 = extractvalue { ptr, i32 } %37, 0
  call void @__clang_call_terminate(ptr %38) #27
  unreachable

_ZN8rationalD2Ev.exit:                            ; preds = %.noexc.i
  call void @llvm.lifetime.end.p0(i64 32, ptr nonnull %4) #26
  ret i1 true

39:                                               ; preds = %3
  %40 = landingpad { ptr, i32 }
          cleanup
  br label %46

41:                                               ; preds = %_ZNK10arith_util10mk_numeralERK8rationalb.exit.i, %13
  %42 = landingpad { ptr, i32 }
          cleanup
  br label %45

43:                                               ; preds = %_ZN7obj_refI4expr11ast_managerEC2EPS0_RS1_.exit
  %44 = landingpad { ptr, i32 }
          cleanup
  call void @_ZN7obj_refI4expr11ast_managerED2Ev(ptr noundef nonnull align 8 dereferenceable(16) %6) #26
  br label %45

45:                                               ; preds = %43, %41
  %.pn = phi { ptr, i32 } [ %44, %43 ], [ %42, %41 ]
  call void @llvm.lifetime.end.p0(i64 16, ptr nonnull %6) #26
  br label %46

46:                                               ; preds = %45, %39
  %.pn.pn = phi { ptr, i32 } [ %.pn, %45 ], [ %40, %39 ]
  call void @llvm.lifetime.end.p0(i64 16, ptr nonnull %5) #26
  call void @_ZN8rationalD2Ev(ptr noundef nonnull align 8 dereferenceable(32) %4) #26
  call void @llvm.lifetime.end.p0(i64 32, ptr nonnull %4) #26
  resume { ptr, i32 } %.pn.pn
}